target datalayout = "e-m:e-p270:32:32-p271:32:32-p272:64:64-i64:64-i128:128-f80:128-n8:16:32:64-S128"
target triple = "x86_64-pc-linux-gnu"

%struct.evp_pkey_asn1_method_st = type { i32, i32, i64, ptr, ptr, ptr, ptr, ptr, ptr, ptr, ptr, ptr, ptr, ptr, ptr, ptr, ptr, ptr, ptr, ptr, ptr, ptr, ptr, ptr, ptr, ptr, ptr, ptr, ptr, ptr, ptr, ptr, ptr, ptr, ptr, ptr, ptr, ptr, ptr, ptr, ptr }
%struct.evp_pkey_st = type { i32, i32, ptr, ptr, ptr, %union.legacy_pkey_st, %union.legacy_pkey_st, %struct.CRYPTO_REF_COUNT, ptr, ptr, i32, i8, %struct.crypto_ex_data_st, ptr, ptr, i64, ptr, i64, %struct.anon }
%union.legacy_pkey_st = type { ptr }
%struct.CRYPTO_REF_COUNT = type { i32 }
%struct.crypto_ex_data_st = type { ptr, ptr }
%struct.anon = type { i32, i32, i32 }
%struct.ecx_key_st = type { ptr, ptr, i8, [57 x i8], ptr, i64, i32, %struct.CRYPTO_REF_COUNT }

; Function Attrs: nounwind uwtable
define internal i32 @ecx_get_priv_key(ptr noundef %0, ptr noundef %1, ptr noundef %2) #0 {
  %4 = alloca i32, align 4
  %5 = alloca ptr, align 8
  %6 = alloca ptr, align 8
  %7 = alloca ptr, align 8
  %8 = alloca ptr, align 8
  %9 = alloca i32, align 4
  store ptr %0, ptr %5, align 8, !tbaa !3
  store ptr %1, ptr %6, align 8, !tbaa !14
  store ptr %2, ptr %7, align 8, !tbaa !52
  call void @llvm.lifetime.start.p0(i64 8, ptr %8) #4
  %10 = load ptr, ptr %5, align 8, !tbaa !3
  %11 = getelementptr inbounds nuw %struct.evp_pkey_st, ptr %10, i32 0, i32 5
  %12 = load ptr, ptr %11, align 8, !tbaa !33
  store ptr %12, ptr %8, align 8, !tbaa !31
  %13 = load ptr, ptr %6, align 8, !tbaa !14
  %14 = icmp eq ptr %13, null
  br i1 %14, label %15, label %42

15:                                               ; preds = %3
  %16 = load ptr, ptr %5, align 8, !tbaa !3
  %17 = getelementptr inbounds nuw %struct.evp_pkey_st, ptr %16, i32 0, i32 2
  %18 = load ptr, ptr %17, align 8, !tbaa !16
  %19 = getelementptr inbounds nuw %struct.evp_pkey_asn1_method_st, ptr %18, i32 0, i32 0
  %20 = load i32, ptr %19, align 8, !tbaa !29
  %21 = icmp eq i32 %20, 1034
  br i1 %21, label %29, label %22

22:                                               ; preds = %15
  %23 = load ptr, ptr %5, align 8, !tbaa !3
  %24 = getelementptr inbounds nuw %struct.evp_pkey_st, ptr %23, i32 0, i32 2
  %25 = load ptr, ptr %24, align 8, !tbaa !16
  %26 = getelementptr inbounds nuw %struct.evp_pkey_asn1_method_st, ptr %25, i32 0, i32 0
  %27 = load i32, ptr %26, align 8, !tbaa !29
  %28 = icmp eq i32 %27, 1087
  br i1 %28, label %29, label %30

29:                                               ; preds = %22, %15
  br label %38

30:                                               ; preds = %22
  %31 = load ptr, ptr %5, align 8, !tbaa !3
  %32 = getelementptr inbounds nuw %struct.evp_pkey_st, ptr %31, i32 0, i32 2
  %33 = load ptr, ptr %32, align 8, !tbaa !16
  %34 = getelementptr inbounds nuw %struct.evp_pkey_asn1_method_st, ptr %33, i32 0, i32 0
  %35 = load i32, ptr %34, align 8, !tbaa !29
  %36 = icmp eq i32 %35, 1035
  %37 = select i1 %36, i32 56, i32 57
  br label %38

38:                                               ; preds = %30, %29
  %39 = phi i32 [ 32, %29 ], [ %37, %30 ]
  %40 = sext i32 %39 to i64
  %41 = load ptr, ptr %7, align 8, !tbaa !52
  store i64 %40, ptr %41, align 8, !tbaa !46
  store i32 1, ptr %4, align 4
  store i32 1, ptr %9, align 4
  br label %113

42:                                               ; preds = %3
  %43 = load ptr, ptr %8, align 8, !tbaa !31
  %44 = icmp eq ptr %43, null
  br i1 %44, label %79, label %45

45:                                               ; preds = %42
  %46 = load ptr, ptr %8, align 8, !tbaa !31
  %47 = getelementptr inbounds nuw %struct.ecx_key_st, ptr %46, i32 0, i32 4
  %48 = load ptr, ptr %47, align 8, !tbaa !40
  %49 = icmp eq ptr %48, null
  br i1 %49, label %79, label %50

50:                                               ; preds = %45
  %51 = load ptr, ptr %7, align 8, !tbaa !52
  %52 = load i64, ptr %51, align 8, !tbaa !46
  %53 = load ptr, ptr %5, align 8, !tbaa !3
  %54 = getelementptr inbounds nuw %struct.evp_pkey_st, ptr %53, i32 0, i32 2
  %55 = load ptr, ptr %54, align 8, !tbaa !16
  %56 = getelementptr inbounds nuw %struct.evp_pkey_asn1_method_st, ptr %55, i32 0, i32 0
  %57 = load i32, ptr %56, align 8, !tbaa !29
  %58 = icmp eq i32 %57, 1034
  br i1 %58, label %66, label %59

59:                                               ; preds = %50
  %60 = load ptr, ptr %5, align 8, !tbaa !3
  %61 = getelementptr inbounds nuw %struct.evp_pkey_st, ptr %60, i32 0, i32 2
  %62 = load ptr, ptr %61, align 8, !tbaa !16
  %63 = getelementptr inbounds nuw %struct.evp_pkey_asn1_method_st, ptr %62, i32 0, i32 0
  %64 = load i32, ptr %63, align 8, !tbaa !29
  %65 = icmp eq i32 %64, 1087
  br i1 %65, label %66, label %67

66:                                               ; preds = %59, %50
  br label %75

67:                                               ; preds = %59
  %68 = load ptr, ptr %5, align 8, !tbaa !3
  %69 = getelementptr inbounds nuw %struct.evp_pkey_st, ptr %68, i32 0, i32 2
  %70 = load ptr, ptr %69, align 8, !tbaa !16
  %71 = getelementptr inbounds nuw %struct.evp_pkey_asn1_method_st, ptr %70, i32 0, i32 0
  %72 = load i32, ptr %71, align 8, !tbaa !29
  %73 = icmp eq i32 %72, 1035
  %74 = select i1 %73, i32 56, i32 57
  br label %75

75:                                               ; preds = %67, %66
  %76 = phi i32 [ 32, %66 ], [ %74, %67 ]
  %77 = sext i32 %76 to i64
  %78 = icmp ult i64 %52, %77
  br i1 %78, label %79, label %80

79:                                               ; preds = %75, %45, %42
  store i32 0, ptr %4, align 4
  store i32 1, ptr %9, align 4
  br label %113

80:                                               ; preds = %75
  %81 = load ptr, ptr %5, align 8, !tbaa !3
  %82 = getelementptr inbounds nuw %struct.evp_pkey_st, ptr %81, i32 0, i32 2
  %83 = load ptr, ptr %82, align 8, !tbaa !16
  %84 = getelementptr inbounds nuw %struct.evp_pkey_asn1_method_st, ptr %83, i32 0, i32 0
  %85 = load i32, ptr %84, align 8, !tbaa !29
  %86 = icmp eq i32 %85, 1034
  br i1 %86, label %94, label %87

87:                                               ; preds = %80
  %88 = load ptr, ptr %5, align 8, !tbaa !3
  %89 = getelementptr inbounds nuw %struct.evp_pkey_st, ptr %88, i32 0, i32 2
  %90 = load ptr, ptr %89, align 8, !tbaa !16
  %91 = getelementptr inbounds nuw %struct.evp_pkey_asn1_method_st, ptr %90, i32 0, i32 0
  %92 = load i32, ptr %91, align 8, !tbaa !29
  %93 = icmp eq i32 %92, 1087
  br i1 %93, label %94, label %95

94:                                               ; preds = %87, %80
  br label %103

95:                                               ; preds = %87
  %96 = load ptr, ptr %5, align 8, !tbaa !3
  %97 = getelementptr inbounds nuw %struct.evp_pkey_st, ptr %96, i32 0, i32 2
  %98 = load ptr, ptr %97, align 8, !tbaa !16
  %99 = getelementptr inbounds nuw %struct.evp_pkey_asn1_method_st, ptr %98, i32 0, i32 0
  %100 = load i32, ptr %99, align 8, !tbaa !29
  %101 = icmp eq i32 %100, 1035
  %102 = select i1 %101, i32 56, i32 57
  br label %103

103:                                              ; preds = %95, %94
  %104 = phi i32 [ 32, %94 ], [ %102, %95 ]
  %105 = sext i32 %104 to i64
  %106 = load ptr, ptr %7, align 8, !tbaa !52
  store i64 %105, ptr %106, align 8, !tbaa !46
  %107 = load ptr, ptr %6, align 8, !tbaa !14
  %108 = load ptr, ptr %8, align 8, !tbaa !31
  %109 = getelementptr inbounds nuw %struct.ecx_key_st, ptr %108, i32 0, i32 4
  %110 = load ptr, ptr %109, align 8, !tbaa !40
  %111 = load ptr, ptr %7, align 8, !tbaa !52
  %112 = load i64, ptr %111, align 8, !tbaa !46
  call void @llvm.memcpy.p0.p0.i64(ptr align 1 %107, ptr align 1 %110, i64 %112, i1 false)
  store i32 1, ptr %4, align 4
  store i32 1, ptr %9, align 4
  br label %113

113:                                              ; preds = %103, %79, %38
  call void @llvm.lifetime.end.p0(i64 8, ptr %8) #4
  %114 = load i32, ptr %4, align 4
  ret i32 %114
}