; Function Attrs: mustprogress nofree norecurse nosync nounwind willreturn memory(readwrite, inaccessiblemem: none) uwtable
define internal range(i32 0, 2) i32 @ecx_get_priv_key(ptr noundef readonly captures(none) %0, ptr noundef writeonly captures(address_is_null) %1, ptr noundef captures(none) %2) #3 {
  %4 = getelementptr inbounds nuw i8, ptr %0, i64 32
  %5 = load ptr, ptr %4, align 8, !tbaa !27
  %6 = icmp eq ptr %1, null
  br i1 %6, label %7, label %16

7:                                                ; preds = %3
  %8 = getelementptr inbounds nuw i8, ptr %0, i64 8
  %9 = load ptr, ptr %8, align 8, !tbaa !12
  %10 = load i32, ptr %9, align 8, !tbaa !25
  switch i32 %10, label %11 [
    i32 1034, label %14
    i32 1087, label %14
  ]

11:                                               ; preds = %7
  %12 = icmp eq i32 %10, 1035
  %13 = select i1 %12, i64 56, i64 57
  br label %14

14:                                               ; preds = %7, %7, %11
  %15 = phi i64 [ %13, %11 ], [ 32, %7 ], [ 32, %7 ]
  store i64 %15, ptr %2, align 8, !tbaa !35
  br label %39

16:                                               ; preds = %3
  %17 = icmp eq ptr %5, null
  br i1 %17, label %39, label %18

18:                                               ; preds = %16
  %19 = getelementptr inbounds nuw i8, ptr %5, i64 80
  %20 = load ptr, ptr %19, align 8, !tbaa !28
  %21 = icmp eq ptr %20, null
  br i1 %21, label %39, label %22

22:                                               ; preds = %18
  %23 = load i64, ptr %2, align 8, !tbaa !35
  %24 = getelementptr inbounds nuw i8, ptr %0, i64 8
  %25 = load ptr, ptr %24, align 8, !tbaa !12
  %26 = load i32, ptr %25, align 8, !tbaa !25
  switch i32 %26, label %27 [
    i32 1034, label %30
    i32 1087, label %30
  ]

27:                                               ; preds = %22
  %28 = icmp eq i32 %26, 1035
  %29 = select i1 %28, i64 56, i64 57
  br label %30

30:                                               ; preds = %22, %22, %27
  %31 = phi i64 [ %29, %27 ], [ 32, %22 ], [ 32, %22 ]
  %32 = icmp ult i64 %23, %31
  br i1 %32, label %39, label %33

33:                                               ; preds = %30
  switch i32 %26, label %34 [
    i32 1034, label %37
    i32 1087, label %37
  ]

34:                                               ; preds = %33
  %35 = icmp eq i32 %26, 1035
  %36 = select i1 %35, i64 56, i64 57
  br label %37

37:                                               ; preds = %33, %33, %34
  %38 = phi i64 [ %36, %34 ], [ 32, %33 ], [ 32, %33 ]
  store i64 %38, ptr %2, align 8, !tbaa !35
  tail call void @llvm.memcpy.p0.p0.i64(ptr noundef nonnull align 1 dereferenceable(1) %1, ptr noundef nonnull align 1 dereferenceable(1) %20, i64 %38, i1 false)
  br label %39

39:                                               ; preds = %16, %18, %30, %37, %14
  %.0 = phi i32 [ 1, %14 ], [ 1, %37 ], [ 0, %30 ], [ 0, %18 ], [ 0, %16 ]
  ret i32 %.0
}